target datalayout = "e-m:e-p270:32:32-p271:32:32-p272:64:64-i64:64-i128:128-f80:128-n8:16:32:64-S128"
target triple = "x86_64-pc-linux-gnu"

%"struct.icu_77::LocaleDistanceData" = type { ptr, ptr, ptr, ptr, i32, ptr }
%"struct.icu_77::LikelySubtagsData" = type { ptr, %"class.icu_77::UniqueCharStrings", %"class.icu_77::CharStringMap", %"class.icu_77::CharStringMap", ptr, ptr, i32, %"struct.icu_77::LocaleDistanceData" }
%"class.icu_77::UniqueCharStrings" = type <{ %struct.UHashtable, ptr, %"class.icu_77::MemoryPool", i8, [7 x i8] }>
%struct.UHashtable = type { ptr, ptr, ptr, ptr, ptr, ptr, i32, i32, i32, i32, float, float, i8, i8 }
%"class.icu_77::MemoryPool" = type { i32, %"class.icu_77::MaybeStackArray.0" }
%"class.icu_77::MaybeStackArray.0" = type { ptr, i32, i8, [8 x ptr] }
%"class.icu_77::CharStringMap" = type { ptr }
%"class.icu_77::LikelySubtags" = type { ptr, ptr, %"class.icu_77::CharStringMap", %"class.icu_77::CharStringMap", %"class.icu_77::BytesTrie", i64, i64, i32, [26 x i64], ptr, %"struct.icu_77::LocaleDistanceData" }
%"class.icu_77::BytesTrie" = type <{ ptr, ptr, ptr, i32, [4 x i8] }>

@_ZN6icu_7718LocaleDistanceDataC1EOS0_ = unnamed_addr alias void (ptr, ptr), ptr @_ZN6icu_7718LocaleDistanceDataC2EOS0_
@_ZN6icu_7718LocaleDistanceDataD1Ev = unnamed_addr alias void (ptr), ptr @_ZN6icu_7718LocaleDistanceDataD2Ev

; Function Attrs: mustprogress nounwind uwtable
define linkonce_odr noundef nonnull align 8 dereferenceable(28) ptr @_ZN6icu_779BytesTrie5resetEv(ptr noundef nonnull align 8 dereferenceable(28) %0) #0 comdat align 2 {
  %2 = alloca ptr, align 8
  store ptr %0, ptr %2, align 8, !tbaa !108
  %3 = load ptr, ptr %2, align 8
  %4 = getelementptr inbounds nuw %"class.icu_77::BytesTrie", ptr %3, i32 0, i32 1
  %5 = load ptr, ptr %4, align 8, !tbaa !111
  %6 = getelementptr inbounds nuw %"class.icu_77::BytesTrie", ptr %3, i32 0, i32 2
  store ptr %5, ptr %6, align 8, !tbaa !112
  %7 = getelementptr inbounds nuw %"class.icu_77::BytesTrie", ptr %3, i32 0, i32 3
  store i32 -1, ptr %7, align 8, !tbaa !113
  ret ptr %3
}

; Function Attrs: inlinehint mustprogress uwtable
define linkonce_odr noundef i32 @_ZNK6icu_779BytesTrie8getValueEv(ptr noundef nonnull align 8 dereferenceable(28) %0) #3 comdat align 2 {
  %2 = alloca ptr, align 8
  %3 = alloca ptr, align 8
  %4 = alloca i32, align 4
  store ptr %0, ptr %2, align 8, !tbaa !108
  %5 = load ptr, ptr %2, align 8
  call void @llvm.lifetime.start.p0(i64 8, ptr %3) #13
  %6 = getelementptr inbounds nuw %"class.icu_77::BytesTrie", ptr %5, i32 0, i32 2
  %7 = load ptr, ptr %6, align 8, !tbaa !112
  store ptr %7, ptr %3, align 8, !tbaa !17
  call void @llvm.lifetime.start.p0(i64 4, ptr %4) #13
  %8 = load ptr, ptr %3, align 8, !tbaa !17
  %9 = getelementptr inbounds nuw i8, ptr %8, i32 1
  store ptr %9, ptr %3, align 8, !tbaa !17
  %10 = load i8, ptr %8, align 1, !tbaa !114
  %11 = zext i8 %10 to i32
  store i32 %11, ptr %4, align 4, !tbaa !14
  %12 = load ptr, ptr %3, align 8, !tbaa !17
  %13 = load i32, ptr %4, align 4, !tbaa !14
  %14 = ashr i32 %13, 1
  %15 = call noundef i32 @_ZN6icu_779BytesTrie9readValueEPKhi(ptr noundef %12, i32 noundef %14)
  call void @llvm.lifetime.end.p0(i64 4, ptr %4) #13
  call void @llvm.lifetime.end.p0(i64 8, ptr %3) #13
  ret i32 %15
}

; Function Attrs: mustprogress nounwind uwtable
define linkonce_odr noundef i64 @_ZNK6icu_779BytesTrie10getState64Ev(ptr noundef nonnull align 8 dereferenceable(28) %0) #0 comdat align 2 {
  %2 = alloca ptr, align 8
  store ptr %0, ptr %2, align 8, !tbaa !108
  %3 = load ptr, ptr %2, align 8
  %4 = getelementptr inbounds nuw %"class.icu_77::BytesTrie", ptr %3, i32 0, i32 3
  %5 = load i32, ptr %4, align 8, !tbaa !113
  %6 = add nsw i32 %5, 2
  %7 = sext i32 %6 to i64
  %8 = shl i64 %7, 59
  %9 = getelementptr inbounds nuw %"class.icu_77::BytesTrie", ptr %3, i32 0, i32 2
  %10 = load ptr, ptr %9, align 8, !tbaa !112
  %11 = getelementptr inbounds nuw %"class.icu_77::BytesTrie", ptr %3, i32 0, i32 1
  %12 = load ptr, ptr %11, align 8, !tbaa !111
  %13 = ptrtoint ptr %10 to i64
  %14 = ptrtoint ptr %12 to i64
  %15 = sub i64 %13, %14
  %16 = or i64 %8, %15
  ret i64 %16
}

; Function Attrs: mustprogress nounwind uwtable
define linkonce_odr void @_ZN6icu_779BytesTrieC2EPKv(ptr noundef nonnull align 8 dereferenceable(28) %0, ptr noundef %1) unnamed_addr #0 comdat align 2 {
  %3 = alloca ptr, align 8
  %4 = alloca ptr, align 8
  store ptr %0, ptr %3, align 8, !tbaa !108
  store ptr %1, ptr %4, align 8, !tbaa !22
  %5 = load ptr, ptr %3, align 8
  %6 = getelementptr inbounds nuw %"class.icu_77::BytesTrie", ptr %5, i32 0, i32 0
  store ptr null, ptr %6, align 8, !tbaa !110
  %7 = getelementptr inbounds nuw %"class.icu_77::BytesTrie", ptr %5, i32 0, i32 1
  %8 = load ptr, ptr %4, align 8, !tbaa !22
  store ptr %8, ptr %7, align 8, !tbaa !111
  %9 = getelementptr inbounds nuw %"class.icu_77::BytesTrie", ptr %5, i32 0, i32 2
  %10 = getelementptr inbounds nuw %"class.icu_77::BytesTrie", ptr %5, i32 0, i32 1
  %11 = load ptr, ptr %10, align 8, !tbaa !111
  store ptr %11, ptr %9, align 8, !tbaa !112
  %12 = getelementptr inbounds nuw %"class.icu_77::BytesTrie", ptr %5, i32 0, i32 3
  store i32 -1, ptr %12, align 8, !tbaa !113
  ret void
}

; Function Attrs: mustprogress nounwind uwtable
define linkonce_odr void @_ZN6icu_7713CharStringMapC2EOS0_(ptr noundef nonnull align 8 dereferenceable(8) %0, ptr noundef nonnull align 8 dereferenceable(8) %1) unnamed_addr #0 comdat align 2 {
  %3 = alloca ptr, align 8
  %4 = alloca ptr, align 8
  store ptr %0, ptr %3, align 8, !tbaa !105
  store ptr %1, ptr %4, align 8, !tbaa !105
  %5 = load ptr, ptr %3, align 8
  %6 = getelementptr inbounds nuw %"class.icu_77::CharStringMap", ptr %5, i32 0, i32 0
  %7 = load ptr, ptr %4, align 8, !tbaa !105
  %8 = getelementptr inbounds nuw %"class.icu_77::CharStringMap", ptr %7, i32 0, i32 0
  %9 = load ptr, ptr %8, align 8, !tbaa !107
  store ptr %9, ptr %6, align 8, !tbaa !107
  %10 = load ptr, ptr %4, align 8, !tbaa !105
  %11 = getelementptr inbounds nuw %"class.icu_77::CharStringMap", ptr %10, i32 0, i32 0
  store ptr null, ptr %11, align 8, !tbaa !107
  ret void
}

; Function Attrs: mustprogress nounwind uwtable
define linkonce_odr noundef ptr @_ZN6icu_7717UniqueCharStrings17orphanCharStringsEv(ptr noundef nonnull align 8 dereferenceable(177) %0) #0 comdat align 2 {
  %2 = alloca ptr, align 8
  %3 = alloca ptr, align 8
  store ptr %0, ptr %2, align 8, !tbaa !101
  %4 = load ptr, ptr %2, align 8
  call void @llvm.lifetime.start.p0(i64 8, ptr %3) #13
  %5 = getelementptr inbounds nuw %"class.icu_77::UniqueCharStrings", ptr %4, i32 0, i32 1
  %6 = load ptr, ptr %5, align 8, !tbaa !103
  store ptr %6, ptr %3, align 8, !tbaa !104
  %7 = getelementptr inbounds nuw %"class.icu_77::UniqueCharStrings", ptr %4, i32 0, i32 1
  store ptr null, ptr %7, align 8, !tbaa !103
  %8 = load ptr, ptr %3, align 8, !tbaa !104
  call void @llvm.lifetime.end.p0(i64 8, ptr %3) #13
  ret ptr %8
}

; Function Attrs: mustprogress uwtable
define void @_ZN6icu_7713LikelySubtagsC2ERNS_17LikelySubtagsDataE(ptr noundef nonnull align 8 dereferenceable(352) %0, ptr noundef nonnull align 8 dereferenceable(280) %1) unnamed_addr #1 align 2 personality ptr @__gxx_personality_v0 {
  %3 = alloca ptr, align 8
  %4 = alloca ptr, align 8
  %5 = alloca ptr, align 8
  %6 = alloca i32, align 4
  %7 = alloca i32, align 4
  %8 = alloca i16, align 2
  store ptr %0, ptr %3, align 8, !tbaa !38
  store ptr %1, ptr %4, align 8, !tbaa !44
  %9 = load ptr, ptr %3, align 8
  %10 = getelementptr inbounds nuw %"class.icu_77::LikelySubtags", ptr %9, i32 0, i32 0
  %11 = load ptr, ptr %4, align 8, !tbaa !44
  %12 = getelementptr inbounds nuw %"struct.icu_77::LikelySubtagsData", ptr %11, i32 0, i32 0
  %13 = load ptr, ptr %12, align 8, !tbaa !46
  store ptr %13, ptr %10, align 8, !tbaa !88
  %14 = getelementptr inbounds nuw %"class.icu_77::LikelySubtags", ptr %9, i32 0, i32 1
  %15 = load ptr, ptr %4, align 8, !tbaa !44
  %16 = getelementptr inbounds nuw %"struct.icu_77::LikelySubtagsData", ptr %15, i32 0, i32 1
  %17 = call noundef ptr @_ZN6icu_7717UniqueCharStrings17orphanCharStringsEv(ptr noundef nonnull align 8 dereferenceable(177) %16)
  store ptr %17, ptr %14, align 8, !tbaa !91
  %18 = getelementptr inbounds nuw %"class.icu_77::LikelySubtags", ptr %9, i32 0, i32 2
  %19 = load ptr, ptr %4, align 8, !tbaa !44
  %20 = getelementptr inbounds nuw %"struct.icu_77::LikelySubtagsData", ptr %19, i32 0, i32 2
  call void @_ZN6icu_7713CharStringMapC2EOS0_(ptr noundef nonnull align 8 dereferenceable(8) %18, ptr noundef nonnull align 8 dereferenceable(8) %20) #13
  %21 = getelementptr inbounds nuw %"class.icu_77::LikelySubtags", ptr %9, i32 0, i32 3
  %22 = load ptr, ptr %4, align 8, !tbaa !44
  %23 = getelementptr inbounds nuw %"struct.icu_77::LikelySubtagsData", ptr %22, i32 0, i32 3
  call void @_ZN6icu_7713CharStringMapC2EOS0_(ptr noundef nonnull align 8 dereferenceable(8) %21, ptr noundef nonnull align 8 dereferenceable(8) %23) #13
  %24 = getelementptr inbounds nuw %"class.icu_77::LikelySubtags", ptr %9, i32 0, i32 4
  %25 = load ptr, ptr %4, align 8, !tbaa !44
  %26 = getelementptr inbounds nuw %"struct.icu_77::LikelySubtagsData", ptr %25, i32 0, i32 4
  %27 = load ptr, ptr %26, align 8, !tbaa !60
  invoke void @_ZN6icu_779BytesTrieC2EPKv(ptr noundef nonnull align 8 dereferenceable(28) %24, ptr noundef %27)
          to label %28 unwind label %70

28:                                               ; preds = %2
  %29 = getelementptr inbounds nuw %"class.icu_77::LikelySubtags", ptr %9, i32 0, i32 9
  %30 = load ptr, ptr %4, align 8, !tbaa !44
  %31 = getelementptr inbounds nuw %"struct.icu_77::LikelySubtagsData", ptr %30, i32 0, i32 5
  %32 = load ptr, ptr %31, align 8, !tbaa !61
  store ptr %32, ptr %29, align 8, !tbaa !92
  %33 = getelementptr inbounds nuw %"class.icu_77::LikelySubtags", ptr %9, i32 0, i32 10
  %34 = load ptr, ptr %4, align 8, !tbaa !44
  %35 = getelementptr inbounds nuw %"struct.icu_77::LikelySubtagsData", ptr %34, i32 0, i32 7
  invoke void @_ZN6icu_7718LocaleDistanceDataC1EOS0_(ptr noundef nonnull align 8 dereferenceable(48) %33, ptr noundef nonnull align 8 dereferenceable(48) %35)
          to label %36 unwind label %74

36:                                               ; preds = %28
  %37 = load ptr, ptr %4, align 8, !tbaa !44
  %38 = getelementptr inbounds nuw %"struct.icu_77::LikelySubtagsData", ptr %37, i32 0, i32 0
  store ptr null, ptr %38, align 8, !tbaa !46
  %39 = load ptr, ptr %4, align 8, !tbaa !44
  %40 = getelementptr inbounds nuw %"struct.icu_77::LikelySubtagsData", ptr %39, i32 0, i32 5
  store ptr null, ptr %40, align 8, !tbaa !61
  call void @llvm.lifetime.start.p0(i64 4, ptr %7) #13
  %41 = getelementptr inbounds nuw %"class.icu_77::LikelySubtags", ptr %9, i32 0, i32 4
  %42 = invoke noundef i32 @_ZN6icu_779BytesTrie4nextEi(ptr noundef nonnull align 8 dereferenceable(28) %41, i32 noundef 42)
          to label %43 unwind label %78

43:                                               ; preds = %36
  store i32 %42, ptr %7, align 4, !tbaa !93
  %44 = getelementptr inbounds nuw %"class.icu_77::LikelySubtags", ptr %9, i32 0, i32 4
  %45 = invoke noundef i64 @_ZNK6icu_779BytesTrie10getState64Ev(ptr noundef nonnull align 8 dereferenceable(28) %44)
          to label %46 unwind label %78

46:                                               ; preds = %43
  %47 = getelementptr inbounds nuw %"class.icu_77::LikelySubtags", ptr %9, i32 0, i32 5
  store i64 %45, ptr %47, align 8, !tbaa !95
  %48 = getelementptr inbounds nuw %"class.icu_77::LikelySubtags", ptr %9, i32 0, i32 4
  %49 = invoke noundef i32 @_ZN6icu_779BytesTrie4nextEi(ptr noundef nonnull align 8 dereferenceable(28) %48, i32 noundef 42)
          to label %50 unwind label %78

50:                                               ; preds = %46
  store i32 %49, ptr %7, align 4, !tbaa !93
  %51 = getelementptr inbounds nuw %"class.icu_77::LikelySubtags", ptr %9, i32 0, i32 4
  %52 = invoke noundef i64 @_ZNK6icu_779BytesTrie10getState64Ev(ptr noundef nonnull align 8 dereferenceable(28) %51)
          to label %53 unwind label %78

53:                                               ; preds = %50
  %54 = getelementptr inbounds nuw %"class.icu_77::LikelySubtags", ptr %9, i32 0, i32 6
  store i64 %52, ptr %54, align 8, !tbaa !96
  %55 = getelementptr inbounds nuw %"class.icu_77::LikelySubtags", ptr %9, i32 0, i32 4
  %56 = invoke noundef i32 @_ZN6icu_779BytesTrie4nextEi(ptr noundef nonnull align 8 dereferenceable(28) %55, i32 noundef 42)
          to label %57 unwind label %78

57:                                               ; preds = %53
  store i32 %56, ptr %7, align 4, !tbaa !93
  %58 = getelementptr inbounds nuw %"class.icu_77::LikelySubtags", ptr %9, i32 0, i32 4
  %59 = invoke noundef i32 @_ZNK6icu_779BytesTrie8getValueEv(ptr noundef nonnull align 8 dereferenceable(28) %58)
          to label %60 unwind label %78

60:                                               ; preds = %57
  %61 = getelementptr inbounds nuw %"class.icu_77::LikelySubtags", ptr %9, i32 0, i32 7
  store i32 %59, ptr %61, align 8, !tbaa !97
  %62 = getelementptr inbounds nuw %"class.icu_77::LikelySubtags", ptr %9, i32 0, i32 4
  %63 = invoke noundef nonnull align 8 dereferenceable(28) ptr @_ZN6icu_779BytesTrie5resetEv(ptr noundef nonnull align 8 dereferenceable(28) %62)
          to label %64 unwind label %78

64:                                               ; preds = %60
  call void @llvm.lifetime.start.p0(i64 2, ptr %8) #13
  store i16 97, ptr %8, align 2, !tbaa !98
  br label %65

65:                                               ; preds = %108, %64
  %66 = load i16, ptr %8, align 2, !tbaa !98
  %67 = zext i16 %66 to i32
  %68 = icmp sle i32 %67, 122
  br i1 %68, label %82, label %69

69:                                               ; preds = %65
  call void @llvm.lifetime.end.p0(i64 2, ptr %8) #13
  br label %111

70:                                               ; preds = %2
  %71 = landingpad { ptr, i32 }
          cleanup
  %72 = extractvalue { ptr, i32 } %71, 0
  store ptr %72, ptr %5, align 8
  %73 = extractvalue { ptr, i32 } %71, 1
  store i32 %73, ptr %6, align 4
  br label %114

74:                                               ; preds = %28
  %75 = landingpad { ptr, i32 }
          cleanup
  %76 = extractvalue { ptr, i32 } %75, 0
  store ptr %76, ptr %5, align 8
  %77 = extractvalue { ptr, i32 } %75, 1
  store i32 %77, ptr %6, align 4
  br label %113

78:                                               ; preds = %60, %57, %53, %50, %46, %43, %36
  %79 = landingpad { ptr, i32 }
          cleanup
  %80 = extractvalue { ptr, i32 } %79, 0
  store ptr %80, ptr %5, align 8
  %81 = extractvalue { ptr, i32 } %79, 1
  store i32 %81, ptr %6, align 4
  br label %112

82:                                               ; preds = %65
  %83 = getelementptr inbounds nuw %"class.icu_77::LikelySubtags", ptr %9, i32 0, i32 4
  %84 = load i16, ptr %8, align 2, !tbaa !98
  %85 = zext i16 %84 to i32
  %86 = invoke noundef i32 @_ZN6icu_779BytesTrie4nextEi(ptr noundef nonnull align 8 dereferenceable(28) %83, i32 noundef %85)
          to label %87 unwind label %100

87:                                               ; preds = %82
  store i32 %86, ptr %7, align 4, !tbaa !93
  %88 = load i32, ptr %7, align 4, !tbaa !93
  %89 = icmp eq i32 %88, 1
  br i1 %89, label %90, label %104

90:                                               ; preds = %87
  %91 = getelementptr inbounds nuw %"class.icu_77::LikelySubtags", ptr %9, i32 0, i32 4
  %92 = invoke noundef i64 @_ZNK6icu_779BytesTrie10getState64Ev(ptr noundef nonnull align 8 dereferenceable(28) %91)
          to label %93 unwind label %100

93:                                               ; preds = %90
  %94 = getelementptr inbounds nuw %"class.icu_77::LikelySubtags", ptr %9, i32 0, i32 8
  %95 = load i16, ptr %8, align 2, !tbaa !98
  %96 = zext i16 %95 to i32
  %97 = sub nsw i32 %96, 97
  %98 = sext i32 %97 to i64
  %99 = getelementptr inbounds [26 x i64], ptr %94, i64 0, i64 %98
  store i64 %92, ptr %99, align 8, !tbaa !18
  br label %104

100:                                              ; preds = %104, %90, %82
  %101 = landingpad { ptr, i32 }
          cleanup
  %102 = extractvalue { ptr, i32 } %101, 0
  store ptr %102, ptr %5, align 8
  %103 = extractvalue { ptr, i32 } %101, 1
  store i32 %103, ptr %6, align 4
  call void @llvm.lifetime.end.p0(i64 2, ptr %8) #13
  br label %112

104:                                              ; preds = %93, %87
  %105 = getelementptr inbounds nuw %"class.icu_77::LikelySubtags", ptr %9, i32 0, i32 4
  %106 = invoke noundef nonnull align 8 dereferenceable(28) ptr @_ZN6icu_779BytesTrie5resetEv(ptr noundef nonnull align 8 dereferenceable(28) %105)
          to label %107 unwind label %100

107:                                              ; preds = %104
  br label %108

108:                                              ; preds = %107
  %109 = load i16, ptr %8, align 2, !tbaa !98
  %110 = add i16 %109, 1
  store i16 %110, ptr %8, align 2, !tbaa !98
  br label %65, !llvm.loop !100

111:                                              ; preds = %69
  call void @llvm.lifetime.end.p0(i64 4, ptr %7) #13
  ret void

112:                                              ; preds = %100, %78
  call void @llvm.lifetime.end.p0(i64 4, ptr %7) #13
  call void @_ZN6icu_7718LocaleDistanceDataD1Ev(ptr noundef nonnull align 8 dereferenceable(48) %33) #13
  br label %113

113:                                              ; preds = %112, %74
  call void @_ZN6icu_779BytesTrieD1Ev(ptr noundef nonnull align 8 dereferenceable(28) %24) #13
  br label %114

114:                                              ; preds = %113, %70
  call void @_ZN6icu_7713CharStringMapD2Ev(ptr noundef nonnull align 8 dereferenceable(8) %21) #13
  call void @_ZN6icu_7713CharStringMapD2Ev(ptr noundef nonnull align 8 dereferenceable(8) %18) #13
  br label %115

115:                                              ; preds = %114
  %116 = load ptr, ptr %5, align 8
  %117 = load i32, ptr %6, align 4
  %118 = insertvalue { ptr, i32 } poison, ptr %116, 0
  %119 = insertvalue { ptr, i32 } %118, i32 %117, 1
  resume { ptr, i32 } %119
}