; Function Attrs: mustprogress uwtable
define void @_ZN6icu_7713LikelySubtagsC2ERNS_17LikelySubtagsDataE(ptr noundef nonnull align 8 dereferenceable(352) initializes((0, 60), (296, 304)) %0, ptr noundef nonnull align 8 dereferenceable(280) %1) unnamed_addr #1 align 2 personality ptr @__gxx_personality_v0 {
  %3 = load ptr, ptr %1, align 8, !tbaa !45
  store ptr %3, ptr %0, align 8, !tbaa !108
  %4 = getelementptr inbounds nuw i8, ptr %0, i64 8
  %5 = getelementptr inbounds nuw i8, ptr %1, i64 88
  %6 = load ptr, ptr %5, align 8, !tbaa !59
  store ptr null, ptr %5, align 8, !tbaa !59
  store ptr %6, ptr %4, align 8, !tbaa !112
  %7 = getelementptr inbounds nuw i8, ptr %0, i64 16
  %8 = getelementptr inbounds nuw i8, ptr %1, i64 192
  %9 = load ptr, ptr %8, align 8, !tbaa !84
  store ptr %9, ptr %7, align 8, !tbaa !84
  store ptr null, ptr %8, align 8, !tbaa !84
  %10 = getelementptr inbounds nuw i8, ptr %0, i64 24
  %11 = getelementptr inbounds nuw i8, ptr %1, i64 200
  %12 = load ptr, ptr %11, align 8, !tbaa !84
  store ptr %12, ptr %10, align 8, !tbaa !84
  store ptr null, ptr %11, align 8, !tbaa !84
  %13 = getelementptr inbounds nuw i8, ptr %0, i64 32
  %14 = getelementptr inbounds nuw i8, ptr %1, i64 208
  %15 = load ptr, ptr %14, align 8, !tbaa !80
  store ptr null, ptr %13, align 8, !tbaa !113
  %16 = getelementptr inbounds nuw i8, ptr %0, i64 40
  store ptr %15, ptr %16, align 8, !tbaa !114
  %17 = getelementptr inbounds nuw i8, ptr %0, i64 48
  store ptr %15, ptr %17, align 8, !tbaa !115
  %18 = getelementptr inbounds nuw i8, ptr %0, i64 56
  store i32 -1, ptr %18, align 8, !tbaa !116
  %19 = getelementptr inbounds nuw i8, ptr %0, i64 296
  %20 = getelementptr inbounds nuw i8, ptr %1, i64 216
  %21 = load ptr, ptr %20, align 8, !tbaa !93
  store ptr %21, ptr %19, align 8, !tbaa !117
  %22 = getelementptr inbounds nuw i8, ptr %0, i64 304
  %23 = getelementptr inbounds nuw i8, ptr %1, i64 232
  invoke void @_ZN6icu_7718LocaleDistanceDataC1EOS0_(ptr noundef nonnull align 8 dereferenceable(48) %22, ptr noundef nonnull align 8 dereferenceable(48) %23)
          to label %24 unwind label %63

24:                                               ; preds = %2
  store ptr null, ptr %1, align 8, !tbaa !45
  store ptr null, ptr %20, align 8, !tbaa !93
  %25 = invoke noundef i32 @_ZN6icu_779BytesTrie4nextEi(ptr noundef nonnull align 8 dereferenceable(28) %13, i32 noundef 42)
          to label %26 unwind label %65

26:                                               ; preds = %24
  %27 = load i32, ptr %18, align 8, !tbaa !116
  %28 = add nsw i32 %27, 2
  %29 = zext i32 %28 to i64
  %30 = shl i64 %29, 59
  %31 = load ptr, ptr %17, align 8, !tbaa !115
  %32 = load ptr, ptr %16, align 8, !tbaa !114
  %33 = ptrtoint ptr %31 to i64
  %34 = ptrtoint ptr %32 to i64
  %35 = sub i64 %33, %34
  %36 = or i64 %35, %30
  %37 = getelementptr inbounds nuw i8, ptr %0, i64 64
  store i64 %36, ptr %37, align 8, !tbaa !118
  %38 = invoke noundef i32 @_ZN6icu_779BytesTrie4nextEi(ptr noundef nonnull align 8 dereferenceable(28) %13, i32 noundef 42)
          to label %39 unwind label %65

39:                                               ; preds = %26
  %40 = load i32, ptr %18, align 8, !tbaa !116
  %41 = add nsw i32 %40, 2
  %42 = zext i32 %41 to i64
  %43 = shl i64 %42, 59
  %44 = load ptr, ptr %17, align 8, !tbaa !115
  %45 = load ptr, ptr %16, align 8, !tbaa !114
  %46 = ptrtoint ptr %44 to i64
  %47 = ptrtoint ptr %45 to i64
  %48 = sub i64 %46, %47
  %49 = or i64 %48, %43
  %50 = getelementptr inbounds nuw i8, ptr %0, i64 72
  store i64 %49, ptr %50, align 8, !tbaa !119
  %51 = invoke noundef i32 @_ZN6icu_779BytesTrie4nextEi(ptr noundef nonnull align 8 dereferenceable(28) %13, i32 noundef 42)
          to label %52 unwind label %65

52:                                               ; preds = %39
  %53 = load ptr, ptr %17, align 8, !tbaa !115
  %54 = getelementptr inbounds nuw i8, ptr %53, i64 1
  %55 = load i8, ptr %53, align 1, !tbaa !36
  %56 = lshr i8 %55, 1
  %57 = zext nneg i8 %56 to i32
  %58 = invoke noundef i32 @_ZN6icu_779BytesTrie9readValueEPKhi(ptr noundef nonnull %54, i32 noundef %57)
          to label %_ZNK6icu_779BytesTrie8getValueEv.exit unwind label %65

_ZNK6icu_779BytesTrie8getValueEv.exit:            ; preds = %52
  %59 = getelementptr inbounds nuw i8, ptr %0, i64 80
  store i32 %58, ptr %59, align 8, !tbaa !120
  %60 = load ptr, ptr %16, align 8, !tbaa !114
  store ptr %60, ptr %17, align 8, !tbaa !115
  store i32 -1, ptr %18, align 8, !tbaa !116
  %61 = getelementptr inbounds nuw i8, ptr %0, i64 88
  br label %67

62:                                               ; preds = %86
  ret void

63:                                               ; preds = %2
  %64 = landingpad { ptr, i32 }
          cleanup
  br label %88

65:                                               ; preds = %52, %39, %26, %24
  %66 = landingpad { ptr, i32 }
          cleanup
  br label %87

67:                                               ; preds = %_ZNK6icu_779BytesTrie8getValueEv.exit, %86
  %indvars.iv = phi i64 [ 97, %_ZNK6icu_779BytesTrie8getValueEv.exit ], [ %indvars.iv.next, %86 ]
  %68 = trunc nuw nsw i64 %indvars.iv to i32
  %69 = invoke noundef i32 @_ZN6icu_779BytesTrie4nextEi(ptr noundef nonnull align 8 dereferenceable(28) %13, i32 noundef %68)
          to label %70 unwind label %84

70:                                               ; preds = %67
  %71 = icmp eq i32 %69, 1
  %.pre = load ptr, ptr %16, align 8, !tbaa !114
  br i1 %71, label %72, label %86

72:                                               ; preds = %70
  %73 = load i32, ptr %18, align 8, !tbaa !116
  %74 = add nsw i32 %73, 2
  %75 = zext i32 %74 to i64
  %76 = shl i64 %75, 59
  %77 = load ptr, ptr %17, align 8, !tbaa !115
  %78 = ptrtoint ptr %77 to i64
  %79 = ptrtoint ptr %.pre to i64
  %80 = sub i64 %78, %79
  %81 = or i64 %80, %76
  %82 = add nsw i64 %indvars.iv, -97
  %83 = getelementptr inbounds [26 x i64], ptr %61, i64 0, i64 %82
  store i64 %81, ptr %83, align 8, !tbaa !121
  br label %86

84:                                               ; preds = %67
  %85 = landingpad { ptr, i32 }
          cleanup
  br label %87

86:                                               ; preds = %72, %70
  store ptr %.pre, ptr %17, align 8, !tbaa !115
  store i32 -1, ptr %18, align 8, !tbaa !116
  %indvars.iv.next = add nuw nsw i64 %indvars.iv, 1
  %exitcond.not = icmp eq i64 %indvars.iv.next, 123
  br i1 %exitcond.not, label %62, label %67, !llvm.loop !122

87:                                               ; preds = %84, %65
  %.pn = phi { ptr, i32 } [ %85, %84 ], [ %66, %65 ]
  tail call void @_ZN6icu_7718LocaleDistanceDataD1Ev(ptr noundef nonnull align 8 dereferenceable(48) %22) #17
  br label %88

88:                                               ; preds = %87, %63
  %.pn.pn = phi { ptr, i32 } [ %.pn, %87 ], [ %64, %63 ]
  tail call void @_ZN6icu_779BytesTrieD1Ev(ptr noundef nonnull align 8 dereferenceable(28) %13) #17
  tail call void @_ZN6icu_7713CharStringMapD2Ev(ptr noundef nonnull align 8 dereferenceable(8) %10) #17
  tail call void @_ZN6icu_7713CharStringMapD2Ev(ptr noundef nonnull align 8 dereferenceable(8) %7) #17
  resume { ptr, i32 } %.pn.pn
}